; Function Attrs: mustprogress nofree norecurse nosync nounwind memory(read, argmem: readwrite, inaccessiblemem: none) uwtable
define internal fastcc { ptr, ptr } @_ZN4llvh16itanium_demangle2DbIN12_GLOBAL__N_116DefaultAllocatorEE11parseNumberEb(ptr nocapture noundef nonnull align 16 dereferenceable(4864) %this, i1 noundef zeroext %AllowNegative) unnamed_addr #11 align 2 {
entry:
  %0 = load ptr, ptr %this, align 16
  %Last.i = getelementptr inbounds i8, ptr %this, i64 8
  %1 = load ptr, ptr %Last.i, align 8
  %cmp.not.i = icmp ne ptr %0, %1
  %or.cond.not = select i1 %AllowNegative, i1 %cmp.not.i, i1 false
  br i1 %or.cond.not, label %land.lhs.true.i, label %if.end

land.lhs.true.i:                                  ; preds = %entry
  %2 = load i8, ptr %0, align 1
  %cmp4.i = icmp eq i8 %2, 110
  br i1 %cmp4.i, label %if.then.i, label %if.end

if.then.i:                                        ; preds = %land.lhs.true.i
  %incdec.ptr.i = getelementptr inbounds i8, ptr %0, i64 1
  store ptr %incdec.ptr.i, ptr %this, align 16
  br label %if.end

if.end:                                           ; preds = %if.then.i, %land.lhs.true.i, %entry
  %this.promoted = phi ptr [ %incdec.ptr.i, %if.then.i ], [ %0, %land.lhs.true.i ], [ %0, %entry ]
  %cmp = icmp eq ptr %1, %this.promoted
  br i1 %cmp, label %return, label %lor.lhs.false

lor.lhs.false:                                    ; preds = %if.end
  %3 = load i8, ptr %this.promoted, align 1
  %conv = sext i8 %3 to i32
  %isdigittmp = add nsw i32 %conv, -48
  %isdigit = icmp ult i32 %isdigittmp, 10
  br i1 %isdigit, label %land.rhs, label %return

land.rhs:                                         ; preds = %lor.lhs.false, %while.body
  %this.val1012 = phi ptr [ %incdec.ptr, %while.body ], [ %this.promoted, %lor.lhs.false ]
  %4 = load i8, ptr %this.val1012, align 1
  %conv11 = sext i8 %4 to i32
  %isdigittmp1 = add nsw i32 %conv11, -48
  %isdigit2 = icmp ult i32 %isdigittmp1, 10
  br i1 %isdigit2, label %while.body, label %return

while.body:                                       ; preds = %land.rhs
  %incdec.ptr = getelementptr inbounds i8, ptr %this.val1012, i64 1
  store ptr %incdec.ptr, ptr %this, align 16
  %cmp9.not = icmp eq ptr %1, %incdec.ptr
  br i1 %cmp9.not, label %return, label %land.rhs, !llvm.loop !8

return:                                           ; preds = %while.body, %land.rhs, %if.end, %lor.lhs.false
  %retval.sroa.0.0 = phi ptr [ null, %lor.lhs.false ], [ null, %if.end ], [ %0, %land.rhs ], [ %0, %while.body ]
  %retval.sroa.3.0 = phi ptr [ null, %lor.lhs.false ], [ null, %if.end ], [ %1, %while.body ], [ %this.val1012, %land.rhs ]
  %.fca.0.insert = insertvalue { ptr, ptr } poison, ptr %retval.sroa.0.0, 0
  %.fca.1.insert = insertvalue { ptr, ptr } %.fca.0.insert, ptr %retval.sroa.3.0, 1
  ret { ptr, ptr } %.fca.1.insert
}